; Function Attrs: mustprogress uwtable
define void @_ZN3re28Compiler9AddSuffixEi(ptr nocapture noundef nonnull align 8 dereferenceable(212) %this, i32 noundef %id) local_unnamed_addr #0 align 2 {
entry:
  %failed_ = getelementptr inbounds i8, ptr %this, i64 104
  %0 = load i8, ptr %failed_, align 8
  %1 = and i8 %0, 1
  %tobool.not = icmp eq i8 %1, 0
  br i1 %tobool.not, label %if.end, label %return

if.end:                                           ; preds = %entry
  %rune_range_ = getelementptr inbounds i8, ptr %this, i64 192
  %2 = load i32, ptr %rune_range_, align 8
  %cmp = icmp eq i32 %2, 0
  br i1 %cmp, label %return.sink.split, label %if.end5

if.end5:                                          ; preds = %if.end
  %encoding_ = getelementptr inbounds i8, ptr %this, i64 108
  %3 = load i32, ptr %encoding_, align 4
  %cmp6 = icmp eq i32 %3, 1
  br i1 %cmp6, label %if.then7, label %if.end12

if.then7:                                         ; preds = %if.end5
  %call = tail call noundef i32 @_ZN3re28Compiler18AddSuffixRecursiveEii(ptr noundef nonnull align 8 dereferenceable(212) %this, i32 noundef %2, i32 noundef %id)
  br label %return.sink.split

if.end12:                                         ; preds = %if.end5
  %call13 = tail call noundef i32 @_ZN3re28Compiler9AllocInstEi(ptr noundef nonnull align 8 dereferenceable(212) %this, i32 noundef 1)
  %cmp14 = icmp slt i32 %call13, 0
  br i1 %cmp14, label %return.sink.split, label %if.end18

if.end18:                                         ; preds = %if.end12
  %conv.i = zext nneg i32 %call13 to i64
  %add.ptr.i.i.i.i.i.i.i = getelementptr inbounds i8, ptr %this, i64 128
  %4 = load ptr, ptr %add.ptr.i.i.i.i.i.i.i, align 8
  %arrayidx.i.i = getelementptr inbounds %"class.re2::Prog::Inst", ptr %4, i64 %conv.i
  %5 = load i32, ptr %rune_range_, align 8
  tail call void @_ZN3re24Prog4Inst7InitAltEjj(ptr noundef nonnull align 4 dereferenceable(8) %arrayidx.i.i, i32 noundef %5, i32 noundef %id)
  br label %return.sink.split

return.sink.split:                                ; preds = %if.end12, %if.end, %if.then7, %if.end18
  %call13.sink = phi i32 [ %call13, %if.end18 ], [ %call, %if.then7 ], [ %id, %if.end ], [ 0, %if.end12 ]
  store i32 %call13.sink, ptr %rune_range_, align 8
  br label %return

return:                                           ; preds = %return.sink.split, %entry
  ret void
}